; Function Attrs: nounwind uwtable
define internal fastcc i32 @_controller_index() unnamed_addr #6 {
  %1 = alloca ptr, align 8
  %2 = alloca ptr, align 8
  %3 = load i32, ptr getelementptr inbounds nuw (i8, ptr @slurm_conf, i64 280), align 8
  %.not28 = icmp eq i32 %3, 0
  %.pre34 = load ptr, ptr getelementptr inbounds nuw (i8, ptr @slurm_conf, i64 288), align 8
  br i1 %.not28, label %._crit_edge, label %.lr.ph

.lr.ph:                                           ; preds = %0, %19
  %4 = phi i32 [ %20, %19 ], [ %3, %0 ]
  %5 = phi ptr [ %21, %19 ], [ %.pre34, %0 ]
  %indvars.iv = phi i64 [ %indvars.iv.next, %19 ], [ 0, %0 ]
  %6 = getelementptr inbounds nuw ptr, ptr %5, i64 %indvars.iv
  %7 = load ptr, ptr %6, align 8
  %.not18 = icmp eq ptr %7, null
  br i1 %.not18, label %19, label %8

8:                                                ; preds = %.lr.ph
  %9 = load ptr, ptr getelementptr inbounds nuw (i8, ptr @slurm_conf, i64 272), align 8
  %10 = getelementptr inbounds nuw ptr, ptr %9, i64 %indvars.iv
  %11 = load ptr, ptr %10, align 8
  %.not19 = icmp eq ptr %11, null
  br i1 %.not19, label %19, label %12

12:                                               ; preds = %8
  %13 = tail call i32 @xstrcmp(ptr noundef nonnull getelementptr inbounds nuw (i8, ptr @slurmctld_config, i64 256), ptr noundef nonnull %7) #19
  %.not20 = icmp eq i32 %13, 0
  br i1 %.not20, label %.loopexit.loopexit, label %14

14:                                               ; preds = %12
  %15 = load ptr, ptr getelementptr inbounds nuw (i8, ptr @slurm_conf, i64 288), align 8
  %16 = getelementptr inbounds nuw ptr, ptr %15, i64 %indvars.iv
  %17 = load ptr, ptr %16, align 8
  %18 = tail call i32 @xstrcmp(ptr noundef nonnull getelementptr inbounds nuw (i8, ptr @slurmctld_config, i64 192), ptr noundef %17) #19
  %.not21 = icmp eq i32 %18, 0
  br i1 %.not21, label %.loopexit.loopexit, label %._crit_edge32

._crit_edge32:                                    ; preds = %14
  %.pre = load ptr, ptr getelementptr inbounds nuw (i8, ptr @slurm_conf, i64 288), align 8
  %.pre33 = load i32, ptr getelementptr inbounds nuw (i8, ptr @slurm_conf, i64 280), align 8
  br label %19

19:                                               ; preds = %._crit_edge32, %.lr.ph, %8
  %20 = phi i32 [ %4, %.lr.ph ], [ %4, %8 ], [ %.pre33, %._crit_edge32 ]
  %21 = phi ptr [ %5, %.lr.ph ], [ %5, %8 ], [ %.pre, %._crit_edge32 ]
  %indvars.iv.next = add nuw nsw i64 %indvars.iv, 1
  %22 = zext i32 %20 to i64
  %23 = icmp samesign ult i64 %indvars.iv.next, %22
  br i1 %23, label %.lr.ph, label %._crit_edge, !llvm.loop !19

._crit_edge:                                      ; preds = %19, %0
  %24 = phi ptr [ %.pre34, %0 ], [ %21, %19 ]
  %25 = load ptr, ptr %24, align 8
  %26 = tail call ptr @xstrchr(ptr noundef %25, i32 noundef 44) #19
  %.not = icmp eq ptr %26, null
  br i1 %.not, label %.loopexit, label %27

27:                                               ; preds = %._crit_edge
  call void @llvm.lifetime.start.p0(i64 8, ptr nonnull %1) #19
  store ptr null, ptr %1, align 8
  call void @llvm.lifetime.start.p0(i64 8, ptr nonnull %2) #19
  %28 = load ptr, ptr getelementptr inbounds nuw (i8, ptr @slurm_conf, i64 288), align 8
  %29 = load ptr, ptr %28, align 8
  %30 = tail call ptr @xstrdup(ptr noundef %29) #19
  store ptr %30, ptr %2, align 8
  %31 = call ptr @strtok_r(ptr noundef %30, ptr noundef nonnull @.str.250, ptr noundef nonnull %1) #19
  %.not1524 = icmp eq ptr %31, null
  br i1 %.not1524, label %.thread, label %.lr.ph27

.lr.ph27:                                         ; preds = %27, %35
  %.025 = phi ptr [ %36, %35 ], [ %31, %27 ]
  %32 = call i32 @xstrcmp(ptr noundef nonnull getelementptr inbounds nuw (i8, ptr @slurmctld_config, i64 256), ptr noundef nonnull %.025) #19
  %.not16 = icmp eq i32 %32, 0
  br i1 %.not16, label %37, label %33

33:                                               ; preds = %.lr.ph27
  %34 = call i32 @xstrcmp(ptr noundef nonnull getelementptr inbounds nuw (i8, ptr @slurmctld_config, i64 192), ptr noundef nonnull %.025) #19
  %.not17 = icmp eq i32 %34, 0
  br i1 %.not17, label %37, label %35

35:                                               ; preds = %33
  %36 = call ptr @strtok_r(ptr noundef null, ptr noundef nonnull @.str.250, ptr noundef nonnull %1) #19
  %.not15 = icmp eq ptr %36, null
  br i1 %.not15, label %.thread, label %.lr.ph27, !llvm.loop !20

.thread:                                          ; preds = %35, %27
  call void @slurm_xfree(ptr noundef nonnull %2) #19
  call void @llvm.lifetime.end.p0(i64 8, ptr nonnull %2) #19
  call void @llvm.lifetime.end.p0(i64 8, ptr nonnull %1) #19
  br label %.loopexit

37:                                               ; preds = %.lr.ph27, %33
  call void @slurm_xfree(ptr noundef nonnull %2) #19
  call void @llvm.lifetime.end.p0(i64 8, ptr nonnull %2) #19
  call void @llvm.lifetime.end.p0(i64 8, ptr nonnull %1) #19
  br label %.loopexit

.loopexit.loopexit:                               ; preds = %14, %12
  %38 = trunc nuw nsw i64 %indvars.iv to i32
  br label %.loopexit

.loopexit:                                        ; preds = %.loopexit.loopexit, %._crit_edge, %.thread, %37
  %.013 = phi i32 [ 0, %37 ], [ -1, %.thread ], [ -1, %._crit_edge ], [ %38, %.loopexit.loopexit ]
  ret i32 %.013
}